; Function Attrs: mustprogress nofree norecurse nosync nounwind willreturn memory(read, inaccessiblemem: none) uwtable
define internal noundef float @_ZN5faiss12_GLOBAL__N_121ExtraDistanceComputerINS_14VectorDistanceILNS_10MetricTypeE23EEEE16distance_to_codeEPKh(ptr nocapture noundef nonnull readonly align 8 dereferenceable(64) %0, ptr nocapture noundef readonly %1) unnamed_addr #17 align 2 {
  %3 = getelementptr inbounds i8, ptr %0, i64 24
  %4 = getelementptr inbounds i8, ptr %0, i64 48
  %5 = load ptr, ptr %4, align 8
  %6 = load i64, ptr %3, align 8
  %.not.i = icmp eq i64 %6, 0
  br i1 %.not.i, label %_ZNK5faiss14VectorDistanceILNS_10MetricTypeE23EEclEPKfS4_.exit, label %.lr.ph.i

.lr.ph.i:                                         ; preds = %2, %.lr.ph.i
  %.018.i = phi i64 [ %21, %.lr.ph.i ], [ 0, %2 ]
  %7 = phi <2 x float> [ %20, %.lr.ph.i ], [ zeroinitializer, %2 ]
  %8 = getelementptr inbounds float, ptr %5, i64 %.018.i
  %9 = load float, ptr %8, align 4
  %10 = fpext float %9 to double
  %11 = getelementptr inbounds float, ptr %1, i64 %.018.i
  %12 = load float, ptr %11, align 4
  %13 = fpext float %12 to double
  %14 = tail call double @llvm.minnum.f64(double %10, double %13)
  %15 = fpext <2 x float> %7 to <2 x double>
  %16 = tail call double @llvm.maxnum.f64(double %10, double %13)
  %17 = insertelement <2 x double> poison, double %16, i64 0
  %18 = insertelement <2 x double> %17, double %14, i64 1
  %19 = fadd <2 x double> %18, %15
  %20 = fptrunc <2 x double> %19 to <2 x float>
  %21 = add nuw i64 %.018.i, 1
  %exitcond.not.i = icmp eq i64 %21, %6
  br i1 %exitcond.not.i, label %._crit_edge.loopexit.i, label %.lr.ph.i, !llvm.loop !33

._crit_edge.loopexit.i:                           ; preds = %.lr.ph.i
  %22 = extractelement <2 x float> %20, i64 0
  %23 = extractelement <2 x float> %20, i64 1
  %24 = fdiv float %23, %22
  br label %_ZNK5faiss14VectorDistanceILNS_10MetricTypeE23EEclEPKfS4_.exit

_ZNK5faiss14VectorDistanceILNS_10MetricTypeE23EEclEPKfS4_.exit: ; preds = %2, %._crit_edge.loopexit.i
  %25 = phi float [ 0x7FF8000000000000, %2 ], [ %24, %._crit_edge.loopexit.i ]
  ret float %25
}